target datalayout = "e-m:e-p270:32:32-p271:32:32-p272:64:64-i64:64-i128:128-f80:128-n8:16:32:64-S128"
target triple = "x86_64-pc-linux-gnu"

%"class.draco::AdaptiveRAnsBitDecoder" = type { %"struct.draco::AnsDecoder", double }
%"struct.draco::AnsDecoder" = type { ptr, i32, i32 }

; Function Attrs: mustprogress nounwind uwtable
define linkonce_odr noundef double @_ZN5draco18update_probabilityEdb(double noundef %0, i1 noundef zeroext %1) #5 comdat {
  %3 = alloca double, align 8
  %4 = alloca i8, align 1
  store double %0, ptr %3, align 8
  %5 = zext i1 %1 to i8
  store i8 %5, ptr %4, align 1
  %6 = load double, ptr %3, align 8
  %7 = load i8, ptr %4, align 1
  %8 = trunc i8 %7 to i1
  %9 = xor i1 %8, true
  %10 = zext i1 %9 to i32
  %11 = sitofp i32 %10 to double
  %12 = fmul double %11, 7.812500e-03
  %13 = call double @llvm.fmuladd.f64(double %6, double 0x3FEFC00000000000, double %12)
  ret double %13
}

; Function Attrs: mustprogress nounwind uwtable
define internal noundef i32 @_ZN5dracoL14rabs_desc_readEPNS_10AnsDecoderEh(ptr noundef %0, i8 noundef zeroext %1) #5 {
  %3 = alloca ptr, align 8
  %4 = alloca i8, align 1
  %5 = alloca i32, align 4
  %6 = alloca i32, align 4
  %7 = alloca i32, align 4
  %8 = alloca i32, align 4
  %9 = alloca i32, align 4
  %10 = alloca i8, align 1
  store ptr %0, ptr %3, align 8
  store i8 %1, ptr %4, align 1
  %11 = load i8, ptr %4, align 1
  %12 = zext i8 %11 to i32
  %13 = sub i32 256, %12
  %14 = trunc i32 %13 to i8
  store i8 %14, ptr %10, align 1
  %15 = load ptr, ptr %3, align 8
  %16 = getelementptr inbounds %"struct.draco::AnsDecoder", ptr %15, i32 0, i32 2
  %17 = load i32, ptr %16, align 4
  %18 = icmp ult i32 %17, 4096
  br i1 %18, label %19, label %43

19:                                               ; preds = %2
  %20 = load ptr, ptr %3, align 8
  %21 = getelementptr inbounds %"struct.draco::AnsDecoder", ptr %20, i32 0, i32 1
  %22 = load i32, ptr %21, align 8
  %23 = icmp sgt i32 %22, 0
  br i1 %23, label %24, label %43

24:                                               ; preds = %19
  %25 = load ptr, ptr %3, align 8
  %26 = getelementptr inbounds %"struct.draco::AnsDecoder", ptr %25, i32 0, i32 2
  %27 = load i32, ptr %26, align 4
  %28 = mul i32 %27, 256
  %29 = load ptr, ptr %3, align 8
  %30 = getelementptr inbounds %"struct.draco::AnsDecoder", ptr %29, i32 0, i32 0
  %31 = load ptr, ptr %30, align 8
  %32 = load ptr, ptr %3, align 8
  %33 = getelementptr inbounds %"struct.draco::AnsDecoder", ptr %32, i32 0, i32 1
  %34 = load i32, ptr %33, align 8
  %35 = add nsw i32 %34, -1
  store i32 %35, ptr %33, align 8
  %36 = sext i32 %35 to i64
  %37 = getelementptr inbounds i8, ptr %31, i64 %36
  %38 = load i8, ptr %37, align 1
  %39 = zext i8 %38 to i32
  %40 = add i32 %28, %39
  %41 = load ptr, ptr %3, align 8
  %42 = getelementptr inbounds %"struct.draco::AnsDecoder", ptr %41, i32 0, i32 2
  store i32 %40, ptr %42, align 4
  br label %43

43:                                               ; preds = %24, %19, %2
  %44 = load ptr, ptr %3, align 8
  %45 = getelementptr inbounds %"struct.draco::AnsDecoder", ptr %44, i32 0, i32 2
  %46 = load i32, ptr %45, align 4
  store i32 %46, ptr %8, align 4
  %47 = load i32, ptr %8, align 4
  %48 = udiv i32 %47, 256
  store i32 %48, ptr %6, align 4
  %49 = load i32, ptr %8, align 4
  %50 = urem i32 %49, 256
  store i32 %50, ptr %7, align 4
  %51 = load i32, ptr %6, align 4
  %52 = load i8, ptr %10, align 1
  %53 = zext i8 %52 to i32
  %54 = mul i32 %51, %53
  store i32 %54, ptr %9, align 4
  %55 = load i32, ptr %7, align 4
  %56 = load i8, ptr %10, align 1
  %57 = zext i8 %56 to i32
  %58 = icmp ult i32 %55, %57
  %59 = zext i1 %58 to i32
  store i32 %59, ptr %5, align 4
  %60 = load i32, ptr %5, align 4
  %61 = icmp ne i32 %60, 0
  br i1 %61, label %62, label %68

62:                                               ; preds = %43
  %63 = load i32, ptr %9, align 4
  %64 = load i32, ptr %7, align 4
  %65 = add i32 %63, %64
  %66 = load ptr, ptr %3, align 8
  %67 = getelementptr inbounds %"struct.draco::AnsDecoder", ptr %66, i32 0, i32 2
  store i32 %65, ptr %67, align 4
  br label %77

68:                                               ; preds = %43
  %69 = load i32, ptr %8, align 4
  %70 = load i32, ptr %9, align 4
  %71 = sub i32 %69, %70
  %72 = load i8, ptr %10, align 1
  %73 = zext i8 %72 to i32
  %74 = sub i32 %71, %73
  %75 = load ptr, ptr %3, align 8
  %76 = getelementptr inbounds %"struct.draco::AnsDecoder", ptr %75, i32 0, i32 2
  store i32 %74, ptr %76, align 4
  br label %77

77:                                               ; preds = %68, %62
  %78 = load i32, ptr %5, align 4
  ret i32 %78
}

; Function Attrs: mustprogress nounwind uwtable
define linkonce_odr noundef zeroext i8 @_ZN5draco17clamp_probabilityEd(double noundef %0) #5 comdat {
  %2 = alloca double, align 8
  %3 = alloca i32, align 4
  store double %0, ptr %2, align 8
  %4 = load double, ptr %2, align 8
  %5 = call double @llvm.fmuladd.f64(double %4, double 2.560000e+02, double 5.000000e-01)
  %6 = fptoui double %5 to i32
  store i32 %6, ptr %3, align 4
  %7 = load i32, ptr %3, align 4
  %8 = icmp eq i32 %7, 256
  %9 = zext i1 %8 to i32
  %10 = load i32, ptr %3, align 4
  %11 = sub i32 %10, %9
  store i32 %11, ptr %3, align 4
  %12 = load i32, ptr %3, align 4
  %13 = icmp eq i32 %12, 0
  %14 = zext i1 %13 to i32
  %15 = load i32, ptr %3, align 4
  %16 = add i32 %15, %14
  store i32 %16, ptr %3, align 4
  %17 = load i32, ptr %3, align 4
  %18 = trunc i32 %17 to i8
  ret i8 %18
}

; Function Attrs: mustprogress uwtable
define noundef zeroext i1 @_ZN5draco22AdaptiveRAnsBitDecoder13DecodeNextBitEv(ptr noundef nonnull align 8 dereferenceable(24) %0) #4 align 2 {
  %2 = alloca ptr, align 8
  %3 = alloca i8, align 1
  %4 = alloca i8, align 1
  store ptr %0, ptr %2, align 8
  %5 = load ptr, ptr %2, align 8
  %6 = getelementptr inbounds %"class.draco::AdaptiveRAnsBitDecoder", ptr %5, i32 0, i32 1
  %7 = load double, ptr %6, align 8
  %8 = call noundef zeroext i8 @_ZN5draco17clamp_probabilityEd(double noundef %7)
  store i8 %8, ptr %3, align 1
  %9 = getelementptr inbounds %"class.draco::AdaptiveRAnsBitDecoder", ptr %5, i32 0, i32 0
  %10 = load i8, ptr %3, align 1
  %11 = call noundef i32 @_ZN5dracoL14rabs_desc_readEPNS_10AnsDecoderEh(ptr noundef %9, i8 noundef zeroext %10)
  %12 = icmp ne i32 %11, 0
  %13 = zext i1 %12 to i8
  store i8 %13, ptr %4, align 1
  %14 = getelementptr inbounds %"class.draco::AdaptiveRAnsBitDecoder", ptr %5, i32 0, i32 1
  %15 = load double, ptr %14, align 8
  %16 = load i8, ptr %4, align 1
  %17 = trunc i8 %16 to i1
  %18 = call noundef double @_ZN5draco18update_probabilityEdb(double noundef %15, i1 noundef zeroext %17)
  %19 = getelementptr inbounds %"class.draco::AdaptiveRAnsBitDecoder", ptr %5, i32 0, i32 1
  store double %18, ptr %19, align 8
  %20 = load i8, ptr %4, align 1
  %21 = trunc i8 %20 to i1
  ret i1 %21
}

; Function Attrs: mustprogress uwtable
define void @_ZN5draco22AdaptiveRAnsBitDecoder28DecodeLeastSignificantBits32EiPj(ptr noundef nonnull align 8 dereferenceable(24) %0, i32 noundef %1, ptr noundef %2) #4 align 2 {
  %4 = alloca ptr, align 8
  %5 = alloca i32, align 4
  %6 = alloca ptr, align 8
  %7 = alloca i32, align 4
  store ptr %0, ptr %4, align 8
  store i32 %1, ptr %5, align 4
  store ptr %2, ptr %6, align 8
  %8 = load ptr, ptr %4, align 8
  store i32 0, ptr %7, align 4
  br label %9

9:                                                ; preds = %12, %3
  %10 = load i32, ptr %5, align 4
  %11 = icmp ne i32 %10, 0
  br i1 %11, label %12, label %20

12:                                               ; preds = %9
  %13 = load i32, ptr %7, align 4
  %14 = shl i32 %13, 1
  %15 = call noundef zeroext i1 @_ZN5draco22AdaptiveRAnsBitDecoder13DecodeNextBitEv(ptr noundef nonnull align 8 dereferenceable(24) %8)
  %16 = zext i1 %15 to i32
  %17 = add i32 %14, %16
  store i32 %17, ptr %7, align 4
  %18 = load i32, ptr %5, align 4
  %19 = add nsw i32 %18, -1
  store i32 %19, ptr %5, align 4
  br label %9, !llvm.loop !4

20:                                               ; preds = %9
  %21 = load i32, ptr %7, align 4
  %22 = load ptr, ptr %6, align 8
  store i32 %21, ptr %22, align 4
  ret void
}