; Function Attrs: mustprogress nofree norecurse nosync nounwind memory(read, argmem: readwrite, inaccessiblemem: none) uwtable
define void @_ZN5draco22AdaptiveRAnsBitDecoder28DecodeLeastSignificantBits32EiPj(ptr noundef nonnull align 8 captures(none) dereferenceable(24) %0, i32 noundef %1, ptr noundef writeonly captures(none) %2) local_unnamed_addr #5 align 2 {
  %.not8 = icmp eq i32 %1, 0
  br i1 %.not8, label %._crit_edge, label %.lr.ph

.lr.ph:                                           ; preds = %3
  %4 = getelementptr inbounds nuw i8, ptr %0, i64 16
  %5 = getelementptr inbounds nuw i8, ptr %0, i64 12
  %6 = getelementptr inbounds nuw i8, ptr %0, i64 8
  %7 = load ptr, ptr %0, align 8
  %.promoted = load double, ptr %4, align 8
  %.promoted11 = load i32, ptr %5, align 4
  %.promoted13 = load i32, ptr %6, align 8
  br label %8

8:                                                ; preds = %.lr.ph, %_ZN5draco22AdaptiveRAnsBitDecoder13DecodeNextBitEv.exit
  %9 = phi i32 [ %.promoted13, %.lr.ph ], [ %22, %_ZN5draco22AdaptiveRAnsBitDecoder13DecodeNextBitEv.exit ]
  %storemerge.i.i12 = phi i32 [ %.promoted11, %.lr.ph ], [ %storemerge.i.i, %_ZN5draco22AdaptiveRAnsBitDecoder13DecodeNextBitEv.exit ]
  %10 = phi double [ %.promoted, %.lr.ph ], [ %41, %_ZN5draco22AdaptiveRAnsBitDecoder13DecodeNextBitEv.exit ]
  %.010 = phi i32 [ 0, %.lr.ph ], [ %43, %_ZN5draco22AdaptiveRAnsBitDecoder13DecodeNextBitEv.exit ]
  %.059 = phi i32 [ %1, %.lr.ph ], [ %44, %_ZN5draco22AdaptiveRAnsBitDecoder13DecodeNextBitEv.exit ]
  %11 = shl i32 %.010, 1
  %12 = icmp ult i32 %storemerge.i.i12, 4096
  %13 = icmp sgt i32 %9, 0
  %or.cond = select i1 %12, i1 %13, i1 false
  br i1 %or.cond, label %14, label %_ZN5draco22AdaptiveRAnsBitDecoder13DecodeNextBitEv.exit

14:                                               ; preds = %8
  %15 = shl nuw nsw i32 %storemerge.i.i12, 8
  %16 = add nsw i32 %9, -1
  store i32 %16, ptr %6, align 8
  %17 = zext nneg i32 %16 to i64
  %18 = getelementptr inbounds nuw i8, ptr %7, i64 %17
  %19 = load i8, ptr %18, align 1
  %20 = zext i8 %19 to i32
  %21 = or disjoint i32 %15, %20
  br label %_ZN5draco22AdaptiveRAnsBitDecoder13DecodeNextBitEv.exit

_ZN5draco22AdaptiveRAnsBitDecoder13DecodeNextBitEv.exit: ; preds = %8, %14
  %22 = phi i32 [ %16, %14 ], [ %9, %8 ]
  %23 = phi i32 [ %21, %14 ], [ %storemerge.i.i12, %8 ]
  %24 = tail call double @llvm.fmuladd.f64(double %10, double 2.560000e+02, double 5.000000e-01)
  %25 = fptoui double %24 to i32
  %26 = icmp eq i32 %25, 256
  %27 = tail call i32 @llvm.umax.i32(i32 %25, i32 1)
  %28 = select i1 %26, i32 255, i32 %27
  %29 = sub i32 0, %28
  %30 = lshr i32 %23, 8
  %31 = and i32 %23, 255
  %32 = and i32 %29, 255
  %33 = mul nuw i32 %30, %32
  %34 = icmp samesign ult i32 %31, %32
  %35 = add nuw i32 %32, %33
  %36 = sub i32 %23, %35
  %37 = add nuw i32 %33, %31
  %storemerge.i.i = select i1 %34, i32 %37, i32 %36
  store i32 %storemerge.i.i, ptr %5, align 4
  %38 = xor i1 %34, true
  %39 = uitofp i1 %38 to double
  %40 = fmul double %39, 7.812500e-03
  %41 = tail call noundef double @llvm.fmuladd.f64(double %10, double 0x3FEFC00000000000, double %40)
  store double %41, ptr %4, align 8
  %42 = zext i1 %34 to i32
  %43 = or disjoint i32 %11, %42
  %44 = add nsw i32 %.059, -1
  %.not = icmp eq i32 %44, 0
  br i1 %.not, label %._crit_edge, label %8, !llvm.loop !4

._crit_edge:                                      ; preds = %_ZN5draco22AdaptiveRAnsBitDecoder13DecodeNextBitEv.exit, %3
  %.0.lcssa = phi i32 [ 0, %3 ], [ %43, %_ZN5draco22AdaptiveRAnsBitDecoder13DecodeNextBitEv.exit ]
  store i32 %.0.lcssa, ptr %2, align 4
  ret void
}